target datalayout = "e-m:e-p270:32:32-p271:32:32-p272:64:64-i64:64-i128:128-f80:128-n8:16:32:64-S128"
target triple = "x86_64-pc-linux-gnu"

; Function Attrs: inlinehint nounwind uwtable
define internal i64 @mi_bitmap_mask_(i64 noundef %0, i64 noundef %1) #0 {
  %3 = alloca i64, align 8
  %4 = alloca i64, align 8
  %5 = alloca i64, align 8
  store i64 %0, ptr %4, align 8, !tbaa !7
  store i64 %1, ptr %5, align 8, !tbaa !7
  %6 = load i64, ptr %4, align 8, !tbaa !7
  %7 = icmp uge i64 %6, 64
  br i1 %7, label %8, label %9

8:                                                ; preds = %2
  store i64 -1, ptr %3, align 8
  br label %19

9:                                                ; preds = %2
  %10 = load i64, ptr %4, align 8, !tbaa !7
  %11 = icmp eq i64 %10, 0
  br i1 %11, label %12, label %13

12:                                               ; preds = %9
  store i64 0, ptr %3, align 8
  br label %19

13:                                               ; preds = %9
  %14 = load i64, ptr %4, align 8, !tbaa !7
  %15 = shl i64 1, %14
  %16 = sub i64 %15, 1
  %17 = load i64, ptr %5, align 8, !tbaa !7
  %18 = shl i64 %16, %17
  store i64 %18, ptr %3, align 8
  br label %19

19:                                               ; preds = %13, %12, %8
  %20 = load i64, ptr %3, align 8
  ret i64 %20
}

; Function Attrs: inlinehint nounwind uwtable
define internal i64 @mi_bitmap_index_bit_in_field(i64 noundef %0) #0 {
  %2 = alloca i64, align 8
  store i64 %0, ptr %2, align 8, !tbaa !7
  %3 = load i64, ptr %2, align 8, !tbaa !7
  %4 = urem i64 %3, 64
  ret i64 %4
}

; Function Attrs: inlinehint nounwind uwtable
define internal i64 @mi_bitmap_index_field(i64 noundef %0) #0 {
  %2 = alloca i64, align 8
  store i64 %0, ptr %2, align 8, !tbaa !7
  %3 = load i64, ptr %2, align 8, !tbaa !7
  %4 = udiv i64 %3, 64
  ret i64 %4
}

; Function Attrs: nounwind uwtable
define hidden zeroext i1 @_mi_bitmap_claim(ptr noundef %0, i64 noundef %1, i64 noundef %2, i64 noundef %3, ptr noundef %4) #2 {
  %6 = alloca ptr, align 8
  %7 = alloca i64, align 8
  %8 = alloca i64, align 8
  %9 = alloca i64, align 8
  %10 = alloca ptr, align 8
  %11 = alloca i64, align 8
  %12 = alloca i64, align 8
  %13 = alloca i64, align 8
  %14 = alloca i64, align 8
  %15 = alloca i64, align 8
  %16 = alloca i64, align 8
  store ptr %0, ptr %6, align 8, !tbaa !3
  store i64 %1, ptr %7, align 8, !tbaa !7
  store i64 %2, ptr %8, align 8, !tbaa !7
  store i64 %3, ptr %9, align 8, !tbaa !7
  store ptr %4, ptr %10, align 8, !tbaa !19
  call void @llvm.lifetime.start.p0(i64 8, ptr %11) #5
  %17 = load i64, ptr %9, align 8, !tbaa !7
  %18 = call i64 @mi_bitmap_index_field(i64 noundef %17) #6
  store i64 %18, ptr %11, align 8, !tbaa !7
  call void @llvm.lifetime.start.p0(i64 8, ptr %12) #5
  %19 = load i64, ptr %9, align 8, !tbaa !7
  %20 = call i64 @mi_bitmap_index_bit_in_field(i64 noundef %19) #6
  store i64 %20, ptr %12, align 8, !tbaa !7
  call void @llvm.lifetime.start.p0(i64 8, ptr %13) #5
  %21 = load i64, ptr %8, align 8, !tbaa !7
  %22 = load i64, ptr %12, align 8, !tbaa !7
  %23 = call i64 @mi_bitmap_mask_(i64 noundef %21, i64 noundef %22) #6
  store i64 %23, ptr %13, align 8, !tbaa !7
  call void @llvm.lifetime.start.p0(i64 8, ptr %14) #5
  %24 = load ptr, ptr %6, align 8, !tbaa !3
  %25 = load i64, ptr %11, align 8, !tbaa !7
  %26 = getelementptr inbounds nuw i64, ptr %24, i64 %25
  %27 = load i64, ptr %13, align 8, !tbaa !7
  store i64 %27, ptr %15, align 8, !tbaa !7
  %28 = load i64, ptr %15, align 8
  %29 = atomicrmw or ptr %26, i64 %28 acq_rel, align 8
  store i64 %29, ptr %16, align 8
  %30 = load i64, ptr %16, align 8, !tbaa !7
  store i64 %30, ptr %14, align 8, !tbaa !7
  %31 = load ptr, ptr %10, align 8, !tbaa !19
  %32 = icmp ne ptr %31, null
  br i1 %32, label %33, label %41

33:                                               ; preds = %5
  %34 = load i64, ptr %14, align 8, !tbaa !7
  %35 = load i64, ptr %13, align 8, !tbaa !7
  %36 = and i64 %34, %35
  %37 = load i64, ptr %13, align 8, !tbaa !7
  %38 = icmp ne i64 %36, %37
  %39 = load ptr, ptr %10, align 8, !tbaa !19
  %40 = zext i1 %38 to i8
  store i8 %40, ptr %39, align 1, !tbaa !11
  br label %41

41:                                               ; preds = %33, %5
  %42 = load i64, ptr %14, align 8, !tbaa !7
  %43 = load i64, ptr %13, align 8, !tbaa !7
  %44 = and i64 %42, %43
  %45 = icmp eq i64 %44, 0
  call void @llvm.lifetime.end.p0(i64 8, ptr %14) #5
  call void @llvm.lifetime.end.p0(i64 8, ptr %13) #5
  call void @llvm.lifetime.end.p0(i64 8, ptr %12) #5
  call void @llvm.lifetime.end.p0(i64 8, ptr %11) #5
  ret i1 %45
}