; Function Attrs: mustprogress nofree norecurse nounwind willreturn memory(argmem: readwrite) uwtable
define hidden zeroext i1 @_mi_bitmap_claim(ptr noundef captures(none) %0, i64 noundef %1, i64 noundef %2, i64 noundef %3, ptr noundef writeonly %4) local_unnamed_addr #3 {
  %6 = lshr i64 %3, 6
  %7 = and i64 %3, 63
  %8 = icmp ugt i64 %2, 63
  br i1 %8, label %mi_bitmap_mask_.exit, label %9

9:                                                ; preds = %5
  %10 = icmp eq i64 %2, 0
  br i1 %10, label %mi_bitmap_mask_.exit, label %11

11:                                               ; preds = %9
  %notmask.i = shl nsw i64 -1, %2
  %12 = xor i64 %notmask.i, -1
  %13 = shl i64 %12, %7
  br label %mi_bitmap_mask_.exit

mi_bitmap_mask_.exit:                             ; preds = %5, %9, %11
  %.0.i = phi i64 [ %13, %11 ], [ -1, %5 ], [ 0, %9 ]
  %14 = getelementptr inbounds nuw i64, ptr %0, i64 %6
  %15 = atomicrmw or ptr %14, i64 %.0.i acq_rel, align 8
  %.not = icmp eq ptr %4, null
  %.pre = and i64 %15, %.0.i
  br i1 %.not, label %mi_bitmap_mask_.exit._crit_edge, label %16

16:                                               ; preds = %mi_bitmap_mask_.exit
  %17 = icmp ne i64 %.pre, %.0.i
  %18 = zext i1 %17 to i8
  store i8 %18, ptr %4, align 1, !tbaa !11
  br label %mi_bitmap_mask_.exit._crit_edge

mi_bitmap_mask_.exit._crit_edge:                  ; preds = %mi_bitmap_mask_.exit, %16
  %19 = icmp eq i64 %.pre, 0
  ret i1 %19
}